target datalayout = "e-m:e-p270:32:32-p271:32:32-p272:64:64-i64:64-i128:128-f80:128-n8:16:32:64-S128"
target triple = "x86_64-pc-linux-gnu"

%"class.std::vector.5" = type { %"struct.std::_Vector_base.6" }
%"struct.std::_Vector_base.6" = type { %"struct.std::_Vector_base<float, std::allocator<float>>::_Vector_impl" }
%"struct.std::_Vector_base<float, std::allocator<float>>::_Vector_impl" = type { %"struct.std::_Vector_base<float, std::allocator<float>>::_Vector_impl_data" }
%"struct.std::_Vector_base<float, std::allocator<float>>::_Vector_impl_data" = type { ptr, ptr, ptr }
%"struct.faiss::InvertedListScanner" = type { ptr, i64, i8, i8, ptr, i64 }
%"struct.faiss::(anonymous namespace)::QueryTables" = type { ptr, ptr, i32, ptr, i32, i8, i32, i32, ptr, ptr, ptr, ptr, %"class.std::vector.5", %"class.std::vector.45", ptr, i64, float, %"class.std::vector.50", i64 }
%"class.std::vector.45" = type { %"struct.std::_Vector_base.46" }
%"struct.std::_Vector_base.46" = type { %"struct.std::_Vector_base<const float *, std::allocator<const float *>>::_Vector_impl" }
%"struct.std::_Vector_base<const float *, std::allocator<const float *>>::_Vector_impl" = type { %"struct.std::_Vector_base<const float *, std::allocator<const float *>>::_Vector_impl_data" }
%"struct.std::_Vector_base<const float *, std::allocator<const float *>>::_Vector_impl_data" = type { ptr, ptr, ptr }
%"class.std::vector.50" = type { %"struct.std::_Vector_base.51" }
%"struct.std::_Vector_base.51" = type { %"struct.std::_Vector_base<unsigned char, std::allocator<unsigned char>>::_Vector_impl" }
%"struct.std::_Vector_base<unsigned char, std::allocator<unsigned char>>::_Vector_impl" = type { %"struct.std::_Vector_base<unsigned char, std::allocator<unsigned char>>::_Vector_impl_data" }
%"struct.std::_Vector_base<unsigned char, std::allocator<unsigned char>>::_Vector_impl_data" = type { ptr, ptr, ptr }
%"struct.faiss::(anonymous namespace)::IVFPQScannerT.base.67" = type <{ %"struct.faiss::(anonymous namespace)::QueryTables", ptr, ptr, i64, float }>
%"struct.faiss::(anonymous namespace)::IVFPQScannerT.66" = type <{ %"struct.faiss::(anonymous namespace)::QueryTables", ptr, ptr, i64, float, [4 x i8] }>
%"struct.faiss::(anonymous namespace)::IVFPQScanner.89" = type { %"struct.faiss::InvertedListScanner", %"struct.faiss::(anonymous namespace)::IVFPQScannerT.base.67", i32, ptr }

; Function Attrs: mustprogress uwtable
define internal void @_ZN5faiss12_GLOBAL__N_113IVFPQScannerTIlLNS_10MetricTypeE1ENS_11PQDecoder16EE9init_listElfi(ptr noundef nonnull align 8 dereferenceable(212) %0, i64 noundef %1, float noundef %2, i32 noundef %3) #2 align 2 {
  %5 = alloca ptr, align 8
  %6 = alloca i64, align 8
  %7 = alloca float, align 4
  %8 = alloca i32, align 4
  store ptr %0, ptr %5, align 8, !tbaa !640
  store i64 %1, ptr %6, align 8, !tbaa !11
  store float %2, ptr %7, align 4, !tbaa !73
  store i32 %3, ptr %8, align 4, !tbaa !72
  %9 = load ptr, ptr %5, align 8
  %10 = load i64, ptr %6, align 8, !tbaa !11
  %11 = getelementptr inbounds nuw %"struct.faiss::(anonymous namespace)::QueryTables", ptr %9, i32 0, i32 15
  store i64 %10, ptr %11, align 8, !tbaa !292
  %12 = load float, ptr %7, align 4, !tbaa !73
  %13 = getelementptr inbounds nuw %"struct.faiss::(anonymous namespace)::QueryTables", ptr %9, i32 0, i32 16
  store float %12, ptr %13, align 8, !tbaa !360
  %14 = load i32, ptr %8, align 4, !tbaa !72
  %15 = icmp eq i32 %14, 2
  br i1 %15, label %16, label %19

16:                                               ; preds = %4
  %17 = call noundef float @_ZN5faiss12_GLOBAL__N_111QueryTables22precompute_list_tablesEv(ptr noundef nonnull align 8 dereferenceable(184) %9)
  %18 = getelementptr inbounds nuw %"struct.faiss::(anonymous namespace)::IVFPQScannerT.66", ptr %9, i32 0, i32 4
  store float %17, ptr %18, align 8, !tbaa !642
  br label %26

19:                                               ; preds = %4
  %20 = load i32, ptr %8, align 4, !tbaa !72
  %21 = icmp eq i32 %20, 1
  br i1 %21, label %22, label %25

22:                                               ; preds = %19
  %23 = call noundef float @_ZN5faiss12_GLOBAL__N_111QueryTables30precompute_list_table_pointersEv(ptr noundef nonnull align 8 dereferenceable(184) %9)
  %24 = getelementptr inbounds nuw %"struct.faiss::(anonymous namespace)::IVFPQScannerT.66", ptr %9, i32 0, i32 4
  store float %23, ptr %24, align 8, !tbaa !642
  br label %25

25:                                               ; preds = %22, %19
  br label %26

26:                                               ; preds = %25, %16
  ret void
}

; Function Attrs: mustprogress uwtable
define internal void @_ZN5faiss12_GLOBAL__N_112IVFPQScannerILNS_10MetricTypeE1ENS_4CMaxIflEENS_11PQDecoder16ELb0EE8set_listElf(ptr noundef nonnull align 8 dereferenceable(264) %0, i64 noundef %1, float noundef %2) unnamed_addr #2 align 2 {
  %4 = alloca ptr, align 8
  %5 = alloca i64, align 8
  %6 = alloca float, align 4
  store ptr %0, ptr %4, align 8, !tbaa !993
  store i64 %1, ptr %5, align 8, !tbaa !11
  store float %2, ptr %6, align 4, !tbaa !73
  %7 = load ptr, ptr %4, align 8
  %8 = load i64, ptr %5, align 8, !tbaa !11
  %9 = getelementptr inbounds nuw %"struct.faiss::InvertedListScanner", ptr %7, i32 0, i32 1
  store i64 %8, ptr %9, align 8, !tbaa !285
  %10 = getelementptr inbounds i8, ptr %7, i64 40
  %11 = load i64, ptr %5, align 8, !tbaa !11
  %12 = load float, ptr %6, align 4, !tbaa !73
  %13 = getelementptr inbounds nuw %"struct.faiss::(anonymous namespace)::IVFPQScanner.89", ptr %7, i32 0, i32 2
  %14 = load i32, ptr %13, align 4, !tbaa !995
  call void @_ZN5faiss12_GLOBAL__N_113IVFPQScannerTIlLNS_10MetricTypeE1ENS_11PQDecoder16EE9init_listElfi(ptr noundef nonnull align 8 dereferenceable(212) %10, i64 noundef %11, float noundef %12, i32 noundef %14)
  ret void
}